target datalayout = "e-m:e-p270:32:32-p271:32:32-p272:64:64-i64:64-i128:128-f80:128-n8:16:32:64-S128"
target triple = "x86_64-pc-linux-gnu"

%struct.uv_pipe_s = type { ptr, ptr, i32, ptr, [2 x ptr], %union.anon, ptr, i32, i64, ptr, ptr, ptr, ptr, %struct.uv__io_s, [2 x ptr], [2 x ptr], ptr, i32, i32, ptr, i32, ptr }
%union.anon = type { [4 x ptr] }
%struct.uv__io_s = type { ptr, [2 x ptr], [2 x ptr], i32, i32, i32 }
%struct.sockaddr_un = type { i16, [108 x i8] }
%struct.stat = type { i64, i64, i64, i32, i32, i32, i32, i64, i64, i64, i64, %struct.timespec, %struct.timespec, %struct.timespec, [3 x i64] }
%struct.timespec = type { i64, i64 }

; Function Attrs: nounwind uwtable
define internal i32 @uv__pipe_getsockpeername(ptr noundef %0, ptr noundef %1, ptr noundef %2, ptr noundef %3) #0 {
  %5 = alloca i32, align 4
  %6 = alloca ptr, align 8
  %7 = alloca ptr, align 8
  %8 = alloca ptr, align 8
  %9 = alloca ptr, align 8
  %10 = alloca %struct.sockaddr_un, align 2
  %11 = alloca i32, align 4
  %12 = alloca i32, align 4
  %13 = alloca i32, align 4
  store ptr %0, ptr %6, align 8, !tbaa !9
  store ptr %1, ptr %7, align 8, !tbaa !31
  store ptr %2, ptr %8, align 8, !tbaa !24
  store ptr %3, ptr %9, align 8, !tbaa !45
  call void @llvm.lifetime.start.p0(i64 110, ptr %10) #8
  call void @llvm.lifetime.start.p0(i64 4, ptr %11) #8
  call void @llvm.lifetime.start.p0(i64 4, ptr %12) #8
  store i32 110, ptr %11, align 4, !tbaa !11
  %14 = load i32, ptr %11, align 4, !tbaa !11
  %15 = zext i32 %14 to i64
  call void @llvm.memset.p0.i64(ptr align 2 %10, i8 0, i64 %15, i1 false)
  %16 = load ptr, ptr %6, align 8, !tbaa !9
  %17 = load ptr, ptr %7, align 8, !tbaa !31
  %18 = call i32 @uv__getsockpeername(ptr noundef %16, ptr noundef %17, ptr noundef %10, ptr noundef %11)
  store i32 %18, ptr %12, align 4, !tbaa !11
  %19 = load i32, ptr %12, align 4, !tbaa !11
  %20 = icmp slt i32 %19, 0
  br i1 %20, label %21, label %24

21:                                               ; preds = %4
  %22 = load ptr, ptr %9, align 8, !tbaa !45
  store i64 0, ptr %22, align 8, !tbaa !47
  %23 = load i32, ptr %12, align 4, !tbaa !11
  store i32 %23, ptr %5, align 4
  store i32 1, ptr %13, align 4
  br label %71

24:                                               ; preds = %4
  %25 = getelementptr inbounds nuw %struct.sockaddr_un, ptr %10, i32 0, i32 1
  %26 = getelementptr inbounds [108 x i8], ptr %25, i64 0, i64 0
  %27 = load i8, ptr %26, align 2, !tbaa !30
  %28 = sext i8 %27 to i32
  %29 = icmp eq i32 %28, 0
  br i1 %29, label %30, label %35

30:                                               ; preds = %24
  %31 = load i32, ptr %11, align 4, !tbaa !11
  %32 = zext i32 %31 to i64
  %33 = sub i64 %32, 2
  %34 = trunc i64 %33 to i32
  store i32 %34, ptr %11, align 4, !tbaa !11
  br label %40

35:                                               ; preds = %24
  %36 = getelementptr inbounds nuw %struct.sockaddr_un, ptr %10, i32 0, i32 1
  %37 = getelementptr inbounds [108 x i8], ptr %36, i64 0, i64 0
  %38 = call i64 @strlen(ptr noundef %37) #10
  %39 = trunc i64 %38 to i32
  store i32 %39, ptr %11, align 4, !tbaa !11
  br label %40

40:                                               ; preds = %35, %30
  %41 = load i32, ptr %11, align 4, !tbaa !11
  %42 = zext i32 %41 to i64
  %43 = load ptr, ptr %9, align 8, !tbaa !45
  %44 = load i64, ptr %43, align 8, !tbaa !47
  %45 = icmp uge i64 %42, %44
  br i1 %45, label %46, label %51

46:                                               ; preds = %40
  %47 = load i32, ptr %11, align 4, !tbaa !11
  %48 = add i32 %47, 1
  %49 = zext i32 %48 to i64
  %50 = load ptr, ptr %9, align 8, !tbaa !45
  store i64 %49, ptr %50, align 8, !tbaa !47
  store i32 -105, ptr %5, align 4
  store i32 1, ptr %13, align 4
  br label %71

51:                                               ; preds = %40
  %52 = load ptr, ptr %8, align 8, !tbaa !24
  %53 = getelementptr inbounds nuw %struct.sockaddr_un, ptr %10, i32 0, i32 1
  %54 = getelementptr inbounds [108 x i8], ptr %53, i64 0, i64 0
  %55 = load i32, ptr %11, align 4, !tbaa !11
  %56 = zext i32 %55 to i64
  call void @llvm.memcpy.p0.p0.i64(ptr align 1 %52, ptr align 2 %54, i64 %56, i1 false)
  %57 = load i32, ptr %11, align 4, !tbaa !11
  %58 = zext i32 %57 to i64
  %59 = load ptr, ptr %9, align 8, !tbaa !45
  store i64 %58, ptr %59, align 8, !tbaa !47
  %60 = load ptr, ptr %8, align 8, !tbaa !24
  %61 = getelementptr inbounds i8, ptr %60, i64 0
  %62 = load i8, ptr %61, align 1, !tbaa !30
  %63 = sext i8 %62 to i32
  %64 = icmp ne i32 %63, 0
  br i1 %64, label %65, label %70

65:                                               ; preds = %51
  %66 = load ptr, ptr %8, align 8, !tbaa !24
  %67 = load i32, ptr %11, align 4, !tbaa !11
  %68 = zext i32 %67 to i64
  %69 = getelementptr inbounds nuw i8, ptr %66, i64 %68
  store i8 0, ptr %69, align 1, !tbaa !30
  br label %70

70:                                               ; preds = %65, %51
  store i32 0, ptr %5, align 4
  store i32 1, ptr %13, align 4
  br label %71

71:                                               ; preds = %70, %46, %21
  call void @llvm.lifetime.end.p0(i64 4, ptr %12) #8
  call void @llvm.lifetime.end.p0(i64 4, ptr %11) #8
  call void @llvm.lifetime.end.p0(i64 110, ptr %10) #8
  %72 = load i32, ptr %5, align 4
  ret i32 %72
}

; Function Attrs: nounwind uwtable
define dso_local i32 @uv_pipe_getsockname(ptr noundef %0, ptr noundef %1, ptr noundef %2) #0 {
  %4 = alloca ptr, align 8
  %5 = alloca ptr, align 8
  %6 = alloca ptr, align 8
  store ptr %0, ptr %4, align 8, !tbaa !9
  store ptr %1, ptr %5, align 8, !tbaa !24
  store ptr %2, ptr %6, align 8, !tbaa !45
  %7 = load ptr, ptr %4, align 8, !tbaa !9
  %8 = load ptr, ptr %5, align 8, !tbaa !24
  %9 = load ptr, ptr %6, align 8, !tbaa !45
  %10 = call i32 @uv__pipe_getsockpeername(ptr noundef %7, ptr noundef @getsockname, ptr noundef %8, ptr noundef %9)
  ret i32 %10
}

; Function Attrs: nounwind uwtable
define dso_local i32 @uv_pipe_chmod(ptr noundef %0, i32 noundef %1) #0 {
  %3 = alloca i32, align 4
  %4 = alloca ptr, align 8
  %5 = alloca i32, align 4
  %6 = alloca i32, align 4
  %7 = alloca %struct.stat, align 8
  %8 = alloca ptr, align 8
  %9 = alloca i64, align 8
  %10 = alloca i32, align 4
  %11 = alloca i32, align 4
  store ptr %0, ptr %4, align 8, !tbaa !9
  store i32 %1, ptr %5, align 4, !tbaa !11
  call void @llvm.lifetime.start.p0(i64 4, ptr %6) #8
  call void @llvm.lifetime.start.p0(i64 144, ptr %7) #8
  call void @llvm.lifetime.start.p0(i64 8, ptr %8) #8
  call void @llvm.lifetime.start.p0(i64 8, ptr %9) #8
  call void @llvm.lifetime.start.p0(i64 4, ptr %10) #8
  %12 = load ptr, ptr %4, align 8, !tbaa !9
  %13 = icmp eq ptr %12, null
  br i1 %13, label %20, label %14

14:                                               ; preds = %2
  %15 = load ptr, ptr %4, align 8, !tbaa !9
  %16 = getelementptr inbounds nuw %struct.uv_pipe_s, ptr %15, i32 0, i32 13
  %17 = getelementptr inbounds nuw %struct.uv__io_s, ptr %16, i32 0, i32 5
  %18 = load i32, ptr %17, align 8, !tbaa !25
  %19 = icmp eq i32 %18, -1
  br i1 %19, label %20, label %21

20:                                               ; preds = %14, %2
  store i32 -9, ptr %3, align 4
  store i32 1, ptr %11, align 4
  br label %104

21:                                               ; preds = %14
  %22 = load i32, ptr %5, align 4, !tbaa !11
  %23 = icmp ne i32 %22, 1
  br i1 %23, label %24, label %31

24:                                               ; preds = %21
  %25 = load i32, ptr %5, align 4, !tbaa !11
  %26 = icmp ne i32 %25, 2
  br i1 %26, label %27, label %31

27:                                               ; preds = %24
  %28 = load i32, ptr %5, align 4, !tbaa !11
  %29 = icmp ne i32 %28, 3
  br i1 %29, label %30, label %31

30:                                               ; preds = %27
  store i32 -22, ptr %3, align 4
  store i32 1, ptr %11, align 4
  br label %104

31:                                               ; preds = %27, %24, %21
  store i64 0, ptr %9, align 8, !tbaa !47
  %32 = load ptr, ptr %4, align 8, !tbaa !9
  %33 = call i32 @uv_pipe_getsockname(ptr noundef %32, ptr noundef null, ptr noundef %9)
  store i32 %33, ptr %10, align 4, !tbaa !11
  %34 = load i32, ptr %10, align 4, !tbaa !11
  %35 = icmp ne i32 %34, -105
  br i1 %35, label %36, label %38

36:                                               ; preds = %31
  %37 = load i32, ptr %10, align 4, !tbaa !11
  store i32 %37, ptr %3, align 4
  store i32 1, ptr %11, align 4
  br label %104

38:                                               ; preds = %31
  %39 = load i64, ptr %9, align 8, !tbaa !47
  %40 = call ptr @uv__malloc(i64 noundef %39)
  store ptr %40, ptr %8, align 8, !tbaa !24
  %41 = load ptr, ptr %8, align 8, !tbaa !24
  %42 = icmp eq ptr %41, null
  br i1 %42, label %43, label %44

43:                                               ; preds = %38
  store i32 -12, ptr %3, align 4
  store i32 1, ptr %11, align 4
  br label %104

44:                                               ; preds = %38
  %45 = load ptr, ptr %4, align 8, !tbaa !9
  %46 = load ptr, ptr %8, align 8, !tbaa !24
  %47 = call i32 @uv_pipe_getsockname(ptr noundef %45, ptr noundef %46, ptr noundef %9)
  store i32 %47, ptr %10, align 4, !tbaa !11
  %48 = load i32, ptr %10, align 4, !tbaa !11
  %49 = icmp ne i32 %48, 0
  br i1 %49, label %50, label %53

50:                                               ; preds = %44
  %51 = load ptr, ptr %8, align 8, !tbaa !24
  call void @uv__free(ptr noundef %51)
  %52 = load i32, ptr %10, align 4, !tbaa !11
  store i32 %52, ptr %3, align 4
  store i32 1, ptr %11, align 4
  br label %104

53:                                               ; preds = %44
  %54 = load ptr, ptr %8, align 8, !tbaa !24
  %55 = call i32 @stat(ptr noundef %54, ptr noundef %7) #8
  %56 = icmp eq i32 %55, -1
  br i1 %56, label %57, label %62

57:                                               ; preds = %53
  %58 = load ptr, ptr %8, align 8, !tbaa !24
  call void @uv__free(ptr noundef %58)
  %59 = call ptr @__errno_location() #9
  %60 = load i32, ptr %59, align 4, !tbaa !11
  %61 = sub nsw i32 0, %60
  store i32 %61, ptr %3, align 4
  store i32 1, ptr %11, align 4
  br label %104

62:                                               ; preds = %53
  store i32 0, ptr %6, align 4, !tbaa !11
  %63 = load i32, ptr %5, align 4, !tbaa !11
  %64 = and i32 %63, 1
  %65 = icmp ne i32 %64, 0
  br i1 %65, label %66, label %69

66:                                               ; preds = %62
  %67 = load i32, ptr %6, align 4, !tbaa !11
  %68 = or i32 %67, 292
  store i32 %68, ptr %6, align 4, !tbaa !11
  br label %69

69:                                               ; preds = %66, %62
  %70 = load i32, ptr %5, align 4, !tbaa !11
  %71 = and i32 %70, 2
  %72 = icmp ne i32 %71, 0
  br i1 %72, label %73, label %76

73:                                               ; preds = %69
  %74 = load i32, ptr %6, align 4, !tbaa !11
  %75 = or i32 %74, 146
  store i32 %75, ptr %6, align 4, !tbaa !11
  br label %76

76:                                               ; preds = %73, %69
  %77 = getelementptr inbounds nuw %struct.stat, ptr %7, i32 0, i32 3
  %78 = load i32, ptr %77, align 8, !tbaa !54
  %79 = load i32, ptr %6, align 4, !tbaa !11
  %80 = and i32 %78, %79
  %81 = load i32, ptr %6, align 4, !tbaa !11
  %82 = icmp eq i32 %80, %81
  br i1 %82, label %83, label %85

83:                                               ; preds = %76
  %84 = load ptr, ptr %8, align 8, !tbaa !24
  call void @uv__free(ptr noundef %84)
  store i32 0, ptr %3, align 4
  store i32 1, ptr %11, align 4
  br label %104

85:                                               ; preds = %76
  %86 = load i32, ptr %6, align 4, !tbaa !11
  %87 = getelementptr inbounds nuw %struct.stat, ptr %7, i32 0, i32 3
  %88 = load i32, ptr %87, align 8, !tbaa !54
  %89 = or i32 %88, %86
  store i32 %89, ptr %87, align 8, !tbaa !54
  %90 = load ptr, ptr %8, align 8, !tbaa !24
  %91 = getelementptr inbounds nuw %struct.stat, ptr %7, i32 0, i32 3
  %92 = load i32, ptr %91, align 8, !tbaa !54
  %93 = call i32 @chmod(ptr noundef %90, i32 noundef %92) #8
  store i32 %93, ptr %10, align 4, !tbaa !11
  %94 = load ptr, ptr %8, align 8, !tbaa !24
  call void @uv__free(ptr noundef %94)
  %95 = load i32, ptr %10, align 4, !tbaa !11
  %96 = icmp ne i32 %95, -1
  br i1 %96, label %97, label %98

97:                                               ; preds = %85
  br label %102

98:                                               ; preds = %85
  %99 = call ptr @__errno_location() #9
  %100 = load i32, ptr %99, align 4, !tbaa !11
  %101 = sub nsw i32 0, %100
  br label %102

102:                                              ; preds = %98, %97
  %103 = phi i32 [ 0, %97 ], [ %101, %98 ]
  store i32 %103, ptr %3, align 4
  store i32 1, ptr %11, align 4
  br label %104

104:                                              ; preds = %102, %83, %57, %50, %43, %36, %30, %20
  call void @llvm.lifetime.end.p0(i64 4, ptr %10) #8
  call void @llvm.lifetime.end.p0(i64 8, ptr %9) #8
  call void @llvm.lifetime.end.p0(i64 8, ptr %8) #8
  call void @llvm.lifetime.end.p0(i64 144, ptr %7) #8
  call void @llvm.lifetime.end.p0(i64 4, ptr %6) #8
  %105 = load i32, ptr %3, align 4
  ret i32 %105
}