; Function Attrs: nounwind uwtable
define dso_local i32 @uv_pipe_chmod(ptr noundef %0, i32 noundef %1) local_unnamed_addr #0 {
  %3 = alloca %struct.sockaddr_un, align 2
  %4 = alloca i32, align 4
  %5 = alloca %struct.sockaddr_un, align 2
  %6 = alloca i32, align 4
  %7 = alloca %struct.stat, align 8
  call void @llvm.lifetime.start.p0(i64 144, ptr nonnull %7) #11
  %8 = icmp eq ptr %0, null
  br i1 %8, label %75, label %9

9:                                                ; preds = %2
  %10 = getelementptr inbounds nuw i8, ptr %0, i64 184
  %11 = load i32, ptr %10, align 8, !tbaa !18
  %12 = icmp eq i32 %11, -1
  br i1 %12, label %75, label %13

13:                                               ; preds = %9
  %14 = add i32 %1, -4
  %or.cond3 = icmp ult i32 %14, -3
  br i1 %or.cond3, label %75, label %15

15:                                               ; preds = %13
  call void @llvm.lifetime.start.p0(i64 110, ptr nonnull %5) #11
  call void @llvm.lifetime.start.p0(i64 4, ptr nonnull %6) #11
  store i32 110, ptr %6, align 4, !tbaa !23
  call void @llvm.memset.p0.i64(ptr noundef nonnull align 2 dereferenceable(110) %5, i8 0, i64 110, i1 false)
  %16 = call i32 @uv__getsockpeername(ptr noundef nonnull %0, ptr noundef nonnull @getsockname, ptr noundef nonnull %5, ptr noundef nonnull %6) #11
  %17 = icmp slt i32 %16, 0
  br i1 %17, label %uv_pipe_getsockname.exit, label %18

18:                                               ; preds = %15
  %19 = getelementptr inbounds nuw i8, ptr %5, i64 2
  %20 = load i8, ptr %19, align 2, !tbaa !34
  %21 = icmp eq i8 %20, 0
  br i1 %21, label %22, label %26

22:                                               ; preds = %18
  %23 = load i32, ptr %6, align 4, !tbaa !23
  %24 = zext i32 %23 to i64
  %25 = add nsw i64 %24, -2
  br label %uv_pipe_getsockname.exit.thread

26:                                               ; preds = %18
  %27 = call i64 @strlen(ptr noundef nonnull dereferenceable(1) %19) #13
  br label %uv_pipe_getsockname.exit.thread

uv_pipe_getsockname.exit.thread:                  ; preds = %26, %22
  %storemerge.in.i.i = phi i64 [ %27, %26 ], [ %25, %22 ]
  %28 = add i64 %storemerge.in.i.i, 1
  %29 = and i64 %28, 4294967295
  call void @llvm.lifetime.end.p0(i64 4, ptr nonnull %6) #11
  call void @llvm.lifetime.end.p0(i64 110, ptr nonnull %5) #11
  br label %30

uv_pipe_getsockname.exit:                         ; preds = %15
  call void @llvm.lifetime.end.p0(i64 4, ptr nonnull %6) #11
  call void @llvm.lifetime.end.p0(i64 110, ptr nonnull %5) #11
  %.not = icmp eq i32 %16, -105
  br i1 %.not, label %30, label %75

30:                                               ; preds = %uv_pipe_getsockname.exit.thread, %uv_pipe_getsockname.exit
  %.04650 = phi i64 [ %29, %uv_pipe_getsockname.exit.thread ], [ 0, %uv_pipe_getsockname.exit ]
  %31 = call ptr @uv__malloc(i64 noundef %.04650) #11
  %32 = icmp eq ptr %31, null
  br i1 %32, label %75, label %33

33:                                               ; preds = %30
  call void @llvm.lifetime.start.p0(i64 110, ptr nonnull %3) #11
  call void @llvm.lifetime.start.p0(i64 4, ptr nonnull %4) #11
  store i32 110, ptr %4, align 4, !tbaa !23
  call void @llvm.memset.p0.i64(ptr noundef nonnull align 2 dereferenceable(110) %3, i8 0, i64 110, i1 false)
  %34 = call i32 @uv__getsockpeername(ptr noundef nonnull %0, ptr noundef nonnull @getsockname, ptr noundef nonnull %3, ptr noundef nonnull %4) #11
  %35 = icmp slt i32 %34, 0
  br i1 %35, label %52, label %36

36:                                               ; preds = %33
  %37 = getelementptr inbounds nuw i8, ptr %3, i64 2
  %38 = load i8, ptr %37, align 2, !tbaa !34
  %39 = icmp eq i8 %38, 0
  br i1 %39, label %40, label %44

40:                                               ; preds = %36
  %41 = load i32, ptr %4, align 4, !tbaa !23
  %42 = zext i32 %41 to i64
  %43 = add nsw i64 %42, -2
  br label %46

44:                                               ; preds = %36
  %45 = call i64 @strlen(ptr noundef nonnull dereferenceable(1) %37) #13
  br label %46

46:                                               ; preds = %44, %40
  %storemerge.in.i.i39 = phi i64 [ %45, %44 ], [ %43, %40 ]
  %47 = and i64 %storemerge.in.i.i39, 4294967295
  %.not.i.i40 = icmp samesign ult i64 %47, %.04650
  br i1 %.not.i.i40, label %48, label %52

48:                                               ; preds = %46
  call void @llvm.memcpy.p0.p0.i64(ptr nonnull align 1 %31, ptr nonnull align 2 %37, i64 %47, i1 false)
  %49 = load i8, ptr %31, align 1, !tbaa !34
  %.not13.i.i42 = icmp eq i8 %49, 0
  br i1 %.not13.i.i42, label %53, label %50

50:                                               ; preds = %48
  %51 = getelementptr inbounds nuw i8, ptr %31, i64 %47
  store i8 0, ptr %51, align 1, !tbaa !34
  br label %53

52:                                               ; preds = %46, %33
  %.0.i.i41 = phi i32 [ %34, %33 ], [ -105, %46 ]
  call void @llvm.lifetime.end.p0(i64 4, ptr nonnull %4) #11
  call void @llvm.lifetime.end.p0(i64 110, ptr nonnull %3) #11
  call void @uv__free(ptr noundef nonnull %31) #11
  br label %75

53:                                               ; preds = %50, %48
  call void @llvm.lifetime.end.p0(i64 4, ptr nonnull %4) #11
  call void @llvm.lifetime.end.p0(i64 110, ptr nonnull %3) #11
  %54 = call i32 @stat(ptr noundef nonnull %31, ptr noundef nonnull %7) #11
  %55 = icmp eq i32 %54, -1
  br i1 %55, label %56, label %60

56:                                               ; preds = %53
  call void @uv__free(ptr noundef nonnull %31) #11
  %57 = tail call ptr @__errno_location() #12
  %58 = load i32, ptr %57, align 4, !tbaa !23
  %59 = sub nsw i32 0, %58
  br label %75

60:                                               ; preds = %53
  %61 = and i32 %1, 1
  %.not36 = icmp eq i32 %61, 0
  %spec.select = select i1 %.not36, i32 0, i32 292
  %.not37 = icmp samesign ult i32 %1, 2
  %62 = or disjoint i32 %spec.select, 146
  %.1 = select i1 %.not37, i32 %spec.select, i32 %62
  %63 = getelementptr inbounds nuw i8, ptr %7, i64 24
  %64 = load i32, ptr %63, align 8, !tbaa !43
  %65 = and i32 %64, %.1
  %66 = icmp eq i32 %65, %.1
  br i1 %66, label %67, label %68

67:                                               ; preds = %60
  call void @uv__free(ptr noundef nonnull %31) #11
  br label %75

68:                                               ; preds = %60
  %69 = or i32 %64, %.1
  %70 = call i32 @chmod(ptr noundef nonnull %31, i32 noundef %69) #11
  call void @uv__free(ptr noundef nonnull %31) #11
  %.not38 = icmp eq i32 %70, -1
  br i1 %.not38, label %71, label %75

71:                                               ; preds = %68
  %72 = tail call ptr @__errno_location() #12
  %73 = load i32, ptr %72, align 4, !tbaa !23
  %74 = sub nsw i32 0, %73
  br label %75

75:                                               ; preds = %71, %68, %30, %uv_pipe_getsockname.exit, %13, %2, %9, %67, %56, %52
  %.0 = phi i32 [ %.0.i.i41, %52 ], [ %59, %56 ], [ 0, %67 ], [ -9, %9 ], [ -9, %2 ], [ -22, %13 ], [ %16, %uv_pipe_getsockname.exit ], [ -12, %30 ], [ %74, %71 ], [ 0, %68 ]
  call void @llvm.lifetime.end.p0(i64 144, ptr nonnull %7) #11
  ret i32 %.0
}